; Function Attrs: mustprogress nounwind uwtable
define dso_local void @_ZN4node23WorkerThreadsTaskRunner8ShutdownEv(ptr noundef nonnull align 8 dereferenceable(256) %this) local_unnamed_addr #3 align 2 {
entry:
  tail call void @uv_mutex_lock(ptr noundef nonnull %this) #23
  %stopped_.i = getelementptr inbounds i8, ptr %this, i64 140
  store i8 1, ptr %stopped_.i, align 4
  %tasks_available_.i = getelementptr inbounds i8, ptr %this, i64 40
  tail call void @uv_cond_broadcast(ptr noundef nonnull %tasks_available_.i) #23
  tail call void @uv_mutex_unlock(ptr noundef nonnull %this) #23
  %delayed_task_scheduler_ = getelementptr inbounds i8, ptr %this, i64 224
  %0 = load ptr, ptr %delayed_task_scheduler_, align 8
  tail call void @_ZN4node23WorkerThreadsTaskRunner20DelayedTaskScheduler4StopEv(ptr noundef nonnull align 8 dereferenceable(1296) %0)
  %threads_ = getelementptr inbounds i8, ptr %this, i64 232
  %_M_finish.i = getelementptr inbounds i8, ptr %this, i64 240
  %1 = load ptr, ptr %_M_finish.i, align 8
  %2 = load ptr, ptr %threads_, align 8
  %cmp7.not9 = icmp eq ptr %1, %2
  br i1 %cmp7.not9, label %for.end, label %do.body

for.cond:                                         ; preds = %do.body
  %inc = add nuw i64 %i.08, 1
  %3 = load ptr, ptr %_M_finish.i, align 8
  %4 = load ptr, ptr %threads_, align 8
  %sub.ptr.lhs.cast.i = ptrtoint ptr %3 to i64
  %sub.ptr.rhs.cast.i = ptrtoint ptr %4 to i64
  %sub.ptr.sub.i = sub i64 %sub.ptr.lhs.cast.i, %sub.ptr.rhs.cast.i
  %sub.ptr.div.i = ashr exact i64 %sub.ptr.sub.i, 3
  %cmp = icmp ult i64 %inc, %sub.ptr.div.i
  br i1 %cmp, label %do.body, label %for.end, !llvm.loop !29

do.body:                                          ; preds = %entry, %for.cond
  %5 = phi ptr [ %4, %for.cond ], [ %2, %entry ]
  %i.08 = phi i64 [ %inc, %for.cond ], [ 0, %entry ]
  %add.ptr.i = getelementptr inbounds %"class.std::unique_ptr.5", ptr %5, i64 %i.08
  %6 = load ptr, ptr %add.ptr.i, align 8
  %call6 = tail call i32 @uv_thread_join(ptr noundef %6) #23
  %cmp7.not = icmp eq i32 %call6, 0
  br i1 %cmp7.not, label %for.cond, label %do.body10

do.body10:                                        ; preds = %do.body
  tail call void @_ZN4node6AssertERKNS_13AssertionInfoE(ptr noundef nonnull align 8 dereferenceable(24) @_ZZN4node23WorkerThreadsTaskRunner8ShutdownEvE4args) #23
  tail call void @abort() #24
  unreachable

for.end:                                          ; preds = %for.cond, %entry
  ret void
}